; Function Attrs: mustprogress uwtable
define hidden noalias noundef ptr @_Z29mk_lackr_model_converter_lazyR11ast_managerRK3refI23lackr_model_constructorE(ptr noundef nonnull align 8 dereferenceable(976) %m, ptr nocapture noundef nonnull readonly align 8 dereferenceable(8) %model_constructor) local_unnamed_addr #3 personality ptr @__gxx_personality_v0 {
entry:
  %call = tail call noalias noundef ptr @_ZN6memory8allocateEm(i64 noundef 48)
  %m_ref_count.i.i.i = getelementptr inbounds i8, ptr %call, i64 8
  store i32 0, ptr %m_ref_count.i.i.i, align 8
  %m_env.i.i = getelementptr inbounds i8, ptr %call, i64 16
  store ptr null, ptr %m_env.i.i, align 8
  %m_completion.i.i = getelementptr inbounds i8, ptr %call, i64 24
  store i8 1, ptr %m_completion.i.i, align 8
  store ptr getelementptr inbounds ({ [12 x ptr] }, ptr @_ZTV26lackr_model_converter_lazy, i64 0, i32 0, i64 2), ptr %call, align 8
  %m2.i = getelementptr inbounds i8, ptr %call, i64 32
  store ptr %m, ptr %m2.i, align 8
  %model_constructor.i = getelementptr inbounds i8, ptr %call, i64 40
  %0 = load ptr, ptr %model_constructor, align 8
  store ptr %0, ptr %model_constructor.i, align 8
  %tobool.not.i.i.i = icmp eq ptr %0, null
  br i1 %tobool.not.i.i.i, label %_ZN26lackr_model_converter_lazyC2ER11ast_managerRK3refI23lackr_model_constructorE.exit, label %if.then.i.i.i

if.then.i.i.i:                                    ; preds = %entry
  %m_ref_count.i.i.i.i = getelementptr inbounds i8, ptr %0, i64 40
  %1 = load i32, ptr %m_ref_count.i.i.i.i, align 8
  %inc.i.i.i.i = add i32 %1, 1
  store i32 %inc.i.i.i.i, ptr %m_ref_count.i.i.i.i, align 8
  br label %_ZN26lackr_model_converter_lazyC2ER11ast_managerRK3refI23lackr_model_constructorE.exit

_ZN26lackr_model_converter_lazyC2ER11ast_managerRK3refI23lackr_model_constructorE.exit: ; preds = %entry, %if.then.i.i.i
  ret ptr %call
}